; Function Attrs: null_pointer_is_valid sspstrong uwtable
define internal noundef zeroext i16 @de_esm_nbifom_cont(ptr noundef %0, ptr noundef %1, ptr noundef %2, i32 noundef %3, i32 noundef %4, ptr readnone captures(none) %5, i32 %6) #1 {
  %8 = load ptr, ptr @nbifom_handle, align 8
  %.not = icmp eq ptr %8, null
  br i1 %.not, label %13, label %9

9:                                                ; preds = %7
  %10 = tail call ptr @tvb_new_subset_length(ptr noundef %0, i32 noundef %3, i32 noundef %4)
  %11 = load ptr, ptr @nbifom_handle, align 8
  %12 = tail call i32 @call_dissector(ptr noundef %11, ptr noundef %10, ptr noundef %2, ptr noundef %1)
  br label %16

13:                                               ; preds = %7
  %14 = load i32, ptr @hf_nas_eps_esm_nbifom_cont, align 4
  %15 = tail call ptr @proto_tree_add_item(ptr noundef %1, i32 noundef %14, ptr noundef %0, i32 noundef %3, i32 noundef %4, i32 noundef 0)
  br label %16

16:                                               ; preds = %13, %9
  %17 = trunc i32 %4 to i16
  ret i16 %17
}